; Function Attrs: mustprogress uwtable
define noundef i32 @_ZN4base4File17WriteAtCurrentPosEPKci(ptr noundef nonnull align 8 dereferenceable(50) %0, ptr noundef readonly captures(none) %1, i32 noundef %2) local_unnamed_addr #0 align 2 personality ptr @__gxx_personality_v0 {
  %4 = alloca %"class.base::FileTracing::ScopedTrace", align 8
  %5 = icmp slt i32 %2, 0
  br i1 %5, label %37, label %6

6:                                                ; preds = %3
  call void @llvm.lifetime.start.p0(i64 16, ptr nonnull %4) #14
  call void @_ZN4base11FileTracing11ScopedTraceC1Ev(ptr noundef nonnull align 8 dereferenceable(16) %4)
  %7 = invoke noundef zeroext i1 @_ZN4base11FileTracing17IsCategoryEnabledEv()
          to label %8 unwind label %11

8:                                                ; preds = %6
  br i1 %7, label %9, label %.preheader

.preheader:                                       ; preds = %9, %8
  br label %13

9:                                                ; preds = %8
  %10 = zext nneg i32 %2 to i64
  invoke void @_ZN4base11FileTracing11ScopedTrace10InitializeEPKcPKNS_4FileEl(ptr noundef nonnull align 8 dereferenceable(16) %4, ptr noundef nonnull @.str.7, ptr noundef nonnull %0, i64 noundef %10)
          to label %.preheader unwind label %11

11:                                               ; preds = %9, %6
  %12 = landingpad { ptr, i32 }
          cleanup
  br label %36

13:                                               ; preds = %.preheader, %31
  %.022 = phi i32 [ %32, %31 ], [ 0, %.preheader ]
  %14 = zext nneg i32 %.022 to i64
  %15 = getelementptr inbounds nuw i8, ptr %1, i64 %14
  %16 = sub nsw i32 %2, %.022
  %17 = sext i32 %16 to i64
  br label %18

18:                                               ; preds = %23, %13
  %19 = load i32, ptr %0, align 8, !tbaa !27
  %20 = invoke i64 @write(i32 noundef %19, ptr noundef %15, i64 noundef %17)
          to label %21 unwind label %29

21:                                               ; preds = %18
  %22 = icmp eq i64 %20, -1
  br i1 %22, label %23, label %.critedge

23:                                               ; preds = %21
  %24 = tail call ptr @__errno_location() #15
  %25 = load i32, ptr %24, align 4, !tbaa !27
  %26 = icmp eq i32 %25, 4
  br i1 %26, label %18, label %.critedge.thread, !llvm.loop !37

.critedge:                                        ; preds = %21
  %27 = trunc i64 %20 to i32
  %28 = icmp slt i32 %27, 1
  br i1 %28, label %.critedge.thread, label %31

29:                                               ; preds = %18
  %30 = landingpad { ptr, i32 }
          cleanup
  br label %36

31:                                               ; preds = %.critedge
  %32 = add nuw nsw i32 %.022, %27
  %33 = icmp slt i32 %32, %2
  br i1 %33, label %13, label %.critedge.thread, !llvm.loop !38

.critedge.thread:                                 ; preds = %.critedge, %31, %23
  %34 = phi i32 [ -1, %23 ], [ %27, %31 ], [ %27, %.critedge ]
  %.1 = phi i32 [ %.022, %23 ], [ %.022, %.critedge ], [ %32, %31 ]
  %.not = icmp eq i32 %.1, 0
  %35 = select i1 %.not, i32 %34, i32 %.1
  call void @_ZN4base11FileTracing11ScopedTraceD1Ev(ptr noundef nonnull align 8 dereferenceable(16) %4) #14
  call void @llvm.lifetime.end.p0(i64 16, ptr nonnull %4) #14
  br label %37

36:                                               ; preds = %29, %11
  %.pn = phi { ptr, i32 } [ %30, %29 ], [ %12, %11 ]
  call void @_ZN4base11FileTracing11ScopedTraceD1Ev(ptr noundef nonnull align 8 dereferenceable(16) %4) #14
  call void @llvm.lifetime.end.p0(i64 16, ptr nonnull %4) #14
  resume { ptr, i32 } %.pn

37:                                               ; preds = %3, %.critedge.thread
  %.0 = phi i32 [ %35, %.critedge.thread ], [ -1, %3 ]
  ret i32 %.0
}